Certificate:
    Data:
        Version: 3 (0x2)
        Serial Number: 18242003245052226246 (0xfd289d4d14dc6ac6)
    Signature Algorithm: sha256WithRSAEncryption
        Issuer: C=US, ST=CA, O=X.509, OU=CA ROOT, CN=witnessthismedia.org/emailAddress=djp3@witnessthismedia.org, L=Santa Barbara
        Validity
            Not Before: Oct  8 23:00:58 2018 GMT
            Not After : Oct  5 23:00:58 2028 GMT
        Subject: C=US, ST=CA, O=X.509, OU=CA ROOT, CN=witnessthismedia.org/emailAddress=djp3@witnessthismedia.org, L=Santa Barbara
        Subject Public Key Info:
            Public Key Algorithm: rsaEncryption
                Public-Key: (2048 bit)
                Modulus:
                    00:c0:4c:d6:cd:ca:ec:10:22:2d:5e:0c:cd:1e:22:
                    89:75:5c:1c:45:2c:a7:da:24:38:b5:6b:32:12:75:
                    04:4f:07:49:4b:28:c2:06:fb:a0:95:e7:73:2d:d2:
                    26:2e:6a:ef:e2:71:4b:3a:04:76:93:01:2d:a7:00:
                    db:fb:89:b7:07:26:72:1a:73:cd:70:fe:a2:2c:19:
                    a1:ec:98:4c:05:bb:c7:f2:73:bd:08:56:12:ad:70:
                    97:18:9d:d8:a1:78:b4:ee:d3:9c:1d:9b:f9:f8:d9:
                    5e:c9:7c:9b:30:44:c2:4e:06:e0:64:b5:05:25:89:
                    83:74:22:7b:55:10:c4:eb:c8:e6:98:ab:79:19:7a:
                    fd:d2:5b:a8:c9:77:9f:7f:5c:24:e5:8e:c8:4d:d2:
                    b3:43:3e:c0:8b:24:20:e7:f3:5a:58:df:1a:38:cd:
                    74:f8:ac:d2:cf:eb:5c:a9:fb:63:11:e4:ef:35:38:
                    02:df:b2:5e:15:74:46:61:60:91:32:b8:8b:b4:98:
                    d5:0a:cf:7d:db:56:b9:08:c2:17:e7:b9:89:11:5c:
                    82:8e:d7:e1:7f:c8:c6:f1:9f:39:ea:e8:78:48:ae:
                    c7:aa:80:ed:51:c8:82:05:ac:b7:ee:01:88:fb:a3:
                    8e:0e:ef:ed:29:02:e9:f5:e4:1a:49:29:d7:cd:ef:
                    57:93
                Exponent: 65537 (0x10001)
        X509v3 extensions:
            X509v3 Subject Key Identifier: 
                58:8D:BE:37:9D:8D:A5:10:A0:79:37:3A:F6:0C:F8:E2:AA:D0:A1:AF
            X509v3 Authority Key Identifier: 
                keyid:58:8D:BE:37:9D:8D:A5:10:A0:79:37:3A:F6:0C:F8:E2:AA:D0:A1:AF

            X509v3 Basic Constraints: 
                CA:TRUE
    Signature Algorithm: sha256WithRSAEncryption
         a5:e7:ef:6a:36:4f:11:31:ba:51:a9:e1:2e:4a:4a:44:f3:fd:
         2a:89:1a:26:39:56:15:45:f8:4f:6d:70:2a:97:b9:e3:5d:a9:
         22:42:0e:03:bf:9c:30:36:df:71:f1:00:3a:57:5b:27:aa:30:
         0a:63:fc:70:c0:be:66:97:76:03:d7:d3:ae:a4:95:a3:c1:a7:
         2d:d4:04:b7:d9:9d:61:f3:bb:b7:64:1d:fb:1a:29:08:16:4a:
         ed:91:91:5d:0f:0d:12:f7:1f:8f:17:06:06:c8:47:59:bc:d4:
         56:c0:61:f7:99:61:93:74:03:67:6f:48:cc:07:bf:f6:e1:e2:
         0c:9e:a3:e8:a2:82:f1:09:1b:0f:60:bd:19:18:95:72:62:25:
         a5:77:b1:d0:5a:e8:b2:60:71:c9:1b:a5:7f:c3:de:0c:aa:79:
         32:f1:9c:f2:25:37:e8:53:99:10:80:a5:12:0e:a6:b3:5d:9e:
         e2:be:80:c2:e2:74:ab:c6:dd:85:7c:5a:88:c8:ff:c5:0c:b9:
         c5:5d:58:d1:96:9e:67:68:73:d7:95:bc:84:28:44:2f:a6:22:
         a1:85:b8:f0:ad:3f:d1:43:e8:b3:8f:ed:13:63:b1:a4:41:0a:
         87:d6:48:40:34:a7:17:41:83:25:30:91:3d:f1:d5:04:62:93:
         fa:8d:bf:f7
-----BEGIN CERTIFICATE-----
MIIEDzCCAvegAwIBAgIJAP0onU0U3GrGMA0GCSqGSIb3DQEBCwUAMIGdMQswCQYD
VQQGEwJVUzELMAkGA1UECAwCQ0ExDjAMBgNVBAoMBVguNTA5MRAwDgYDVQQLDAdD
QSBST09UMR0wGwYDVQQDDBR3aXRuZXNzdGhpc21lZGlhLm9yZzEoMCYGCSqGSIb3
DQEJARYZZGpwM0B3aXRuZXNzdGhpc21lZGlhLm9yZzEWMBQGA1UEBwwNU2FudGEg
QmFyYmFyYTAeFw0xODEwMDgyMzAwNThaFw0yODEwMDUyMzAwNThaMIGdMQswCQYD
VQQGEwJVUzELMAkGA1UECAwCQ0ExDjAMBgNVBAoMBVguNTA5MRAwDgYDVQQLDAdD
QSBST09UMR0wGwYDVQQDDBR3aXRuZXNzdGhpc21lZGlhLm9yZzEoMCYGCSqGSIb3
DQEJARYZZGpwM0B3aXRuZXNzdGhpc21lZGlhLm9yZzEWMBQGA1UEBwwNU2FudGEg
QmFyYmFyYTCCASIwDQYJKoZIhvcNAQEBBQADggEPADCCAQoCggEBAMBM1s3K7BAi
LV4MzR4iiXVcHEUsp9okOLVrMhJ1BE8HSUsowgb7oJXncy3SJi5q7+JxSzoEdpMB
LacA2/uJtwcmchpzzXD+oiwZoeyYTAW7x/JzvQhWEq1wlxid2KF4tO7TnB2b+fjZ
Xsl8mzBEwk4G4GS1BSWJg3Qie1UQxOvI5pireRl6/dJbqMl3n39cJOWOyE3Ss0M+
wIskIOfzWljfGjjNdPis0s/rXKn7YxHk7zU4At+yXhV0RmFgkTK4i7SY1QrPfdtW
uQjCF+e5iRFcgo7X4X/IxvGfOeroeEiux6qA7VHIggWst+4BiPujjg7v7SkC6fXk
Gkkp183vV5MCAwEAAaNQME4wHQYDVR0OBBYEFFiNvjedjaUQoHk3OvYM+OKq0KGv
MB8GA1UdIwQYMBaAFFiNvjedjaUQoHk3OvYM+OKq0KGvMAwGA1UdEwQFMAMBAf8w
DQYJKoZIhvcNAQELBQADggEBAKXn72o2TxExulGp4S5KSkTz/SqJGiY5VhVF+E9t
cCqXueNdqSJCDgO/nDA233HxADpXWyeqMApj/HDAvmaXdgPX066klaPBpy3UBLfZ
nWHzu7dkHfsaKQgWSu2RkV0PDRL3H48XBgbIR1m81FbAYfeZYZN0A2dvSMwHv/bh
4gyeo+iigvEJGw9gvRkYlXJiJaV3sdBa6LJgcckbpX/D3gyqeTLxnPIlN+hTmRCA
pRIOprNdnuK+gMLidKvG3YV8WojI/8UMucVdWNGWnmdoc9eVvIQoRC+mIqGFuPCt
P9FD6LOP7RNjsaRBCofWSEA0pxdBgyUwkT3x1QRik/qNv/c=
-----END CERTIFICATE-----
