Certificate:
    Data:
        Version: 3 (0x2)
        Serial Number:
            fd:28:9d:4d:14:dc:6a:c7
    Signature Algorithm: sha256WithRSAEncryption
        Issuer: C=US, ST=CA, O=X.509, OU=CA ROOT, CN=witnessthismedia.org/emailAddress=djp3@witnessthismedia.org, L=Santa Barbara
        Validity
            Not Before: Oct  8 23:18:38 2018 GMT
            Not After : Sep  1 23:18:38 2021 GMT
        Subject: C=US, ST=CA, L=Santa Barbara, O=X.509, OU=Keystore, CN=Donald Patterson
        Subject Public Key Info:
            Public Key Algorithm: rsaEncryption
                Public-Key: (4096 bit)
                Modulus:
                    00:c7:89:54:e2:3c:5c:47:3c:a4:24:7b:80:08:8a:
                    d5:de:b1:b9:10:d5:76:bc:3a:93:60:d2:e3:43:31:
                    f2:0a:8d:e0:dc:c6:df:6b:d9:22:79:c2:8b:24:8c:
                    f8:88:f4:93:44:d7:4a:e9:21:9f:e3:ff:2b:0e:82:
                    76:b2:ae:2a:08:76:2b:59:8a:f1:be:61:bc:fd:72:
                    13:d1:27:2f:ac:46:a5:6a:55:e6:b6:ac:42:05:b5:
                    41:23:ac:5b:99:d0:13:ee:5d:8d:74:a6:05:7b:4b:
                    2e:02:e6:40:f8:e9:11:91:4f:a1:25:1d:17:23:85:
                    02:34:4a:34:c8:01:15:e1:37:b2:ff:22:c0:90:ee:
                    f2:27:e4:cc:d0:6c:f4:ca:73:ad:d2:02:94:41:10:
                    3c:2e:eb:30:4f:2b:47:3a:a2:c5:4a:70:6e:a2:e9:
                    00:2c:be:e9:5b:6a:61:bd:37:f9:70:41:69:d6:30:
                    62:07:7a:ec:13:8f:3c:f4:a2:f3:c9:b2:7b:a8:c3:
                    0d:1f:d5:31:a9:db:b5:7a:5a:1c:40:ae:21:cd:c7:
                    75:b5:6f:63:ba:e0:35:03:0f:d3:a8:46:25:4a:e6:
                    e2:92:55:16:7f:04:b5:64:7c:e2:34:f9:84:11:37:
                    f4:3e:b4:3c:50:1b:1b:6f:da:86:bc:42:16:d8:3b:
                    2f:53:0d:c3:66:63:1a:8a:e4:b3:65:48:7b:77:07:
                    88:89:3e:46:e5:a1:13:67:f9:27:f3:d1:5f:ee:3f:
                    84:b6:78:c0:ca:31:ea:c2:14:b4:da:a9:97:a3:08:
                    7d:82:d0:29:8b:d6:af:8b:62:f8:af:86:4e:be:f6:
                    66:f4:2b:45:9b:48:b3:a6:26:b2:48:ac:dd:fb:3b:
                    44:1a:98:61:68:bf:8d:dc:6a:66:27:4c:26:07:f2:
                    17:b4:b7:90:47:cd:90:d4:d0:e8:ef:df:e8:a8:b0:
                    5f:61:57:a2:ee:2c:e4:f7:40:6f:9d:f9:ac:ed:7c:
                    37:7f:37:64:3a:39:9b:8d:a3:af:a2:6d:55:fc:74:
                    9c:2f:23:d7:1b:e5:c7:b1:d5:d5:bc:07:bf:10:64:
                    7c:e9:bf:a8:f6:6b:0e:04:7f:05:3b:56:76:9a:82:
                    7f:a4:07:05:ea:14:32:e1:95:7d:01:8e:8e:af:d0:
                    33:56:b4:7b:16:dc:20:19:b6:c3:f6:a1:a7:14:62:
                    d4:fa:fa:0c:53:4d:bd:89:71:02:d0:52:ea:30:63:
                    c2:91:3b:c6:25:33:41:7b:59:db:04:17:71:a2:04:
                    d7:66:18:19:c7:84:0a:e3:ad:7c:e4:35:bf:aa:97:
                    dc:db:96:d6:8a:dc:a6:a7:56:53:c1:56:1f:e2:46:
                    1b:a0:c5
                Exponent: 65537 (0x10001)
        X509v3 extensions:
            X509v3 Basic Constraints: 
                CA:FALSE
            Netscape Comment: 
                OpenSSL Generated Certificate
            X509v3 Subject Key Identifier: 
                12:DC:49:E1:2D:2C:2A:22:3B:AA:87:66:62:4E:26:2C:63:0B:B0:9A
            X509v3 Authority Key Identifier: 
                keyid:58:8D:BE:37:9D:8D:A5:10:A0:79:37:3A:F6:0C:F8:E2:AA:D0:A1:AF

    Signature Algorithm: sha256WithRSAEncryption
         99:16:c1:a3:6e:cd:83:50:cb:01:84:b6:23:1d:10:7e:da:11:
         a5:36:61:e8:4b:fd:8a:4e:bc:69:9b:bc:a8:dd:13:d3:3e:64:
         79:c5:54:67:a6:00:56:ac:24:f8:ac:2e:1b:44:ce:07:b5:0d:
         d8:38:be:cc:dc:4f:93:ca:c0:a4:c5:6a:d5:b3:a2:2d:04:93:
         b9:2e:b3:06:ec:32:b0:3c:23:f3:8c:c9:2c:92:7f:e2:01:b1:
         da:99:c3:6f:22:84:ae:dd:e5:fc:18:38:da:02:71:3e:8c:17:
         03:f9:68:16:2a:ab:64:46:e7:eb:6a:a9:2b:bb:1d:26:ed:b1:
         b7:3f:14:e8:08:4b:18:3e:ea:98:7e:af:7c:75:91:66:87:81:
         38:48:8c:52:70:01:19:05:b9:07:94:f5:ad:f8:34:e8:83:6b:
         7c:12:14:2c:13:79:26:52:b3:5f:f8:64:11:52:98:bc:9f:c6:
         d9:91:34:6c:8a:e7:43:b1:b0:c0:44:c8:06:c2:0a:59:7c:fe:
         61:b8:5b:ad:a3:93:ca:30:11:31:9e:58:ce:bb:2f:99:77:5c:
         a4:e6:5b:da:23:ee:63:a3:f6:6e:c2:c6:28:f3:81:d4:7a:1c:
         4b:77:8d:eb:2d:84:f7:0e:ef:f5:38:e9:37:34:a4:61:71:79:
         b4:a4:c9:c6
-----BEGIN CERTIFICATE-----
MIIFDDCCA/SgAwIBAgIJAP0onU0U3GrHMA0GCSqGSIb3DQEBCwUAMIGdMQswCQYD
VQQGEwJVUzELMAkGA1UECAwCQ0ExDjAMBgNVBAoMBVguNTA5MRAwDgYDVQQLDAdD
QSBST09UMR0wGwYDVQQDDBR3aXRuZXNzdGhpc21lZGlhLm9yZzEoMCYGCSqGSIb3
DQEJARYZZGpwM0B3aXRuZXNzdGhpc21lZGlhLm9yZzEWMBQGA1UEBwwNU2FudGEg
QmFyYmFyYTAeFw0xODEwMDgyMzE4MzhaFw0yMTA5MDEyMzE4MzhaMHAxCzAJBgNV
BAYTAlVTMQswCQYDVQQIEwJDQTEWMBQGA1UEBxMNU2FudGEgQmFyYmFyYTEOMAwG
A1UEChMFWC41MDkxETAPBgNVBAsTCEtleXN0b3JlMRkwFwYDVQQDExBEb25hbGQg
UGF0dGVyc29uMIICIjANBgkqhkiG9w0BAQEFAAOCAg8AMIICCgKCAgEAx4lU4jxc
RzykJHuACIrV3rG5ENV2vDqTYNLjQzHyCo3g3Mbfa9kiecKLJIz4iPSTRNdK6SGf
4/8rDoJ2sq4qCHYrWYrxvmG8/XIT0ScvrEalalXmtqxCBbVBI6xbmdAT7l2NdKYF
e0suAuZA+OkRkU+hJR0XI4UCNEo0yAEV4Tey/yLAkO7yJ+TM0Gz0ynOt0gKUQRA8
LuswTytHOqLFSnBuoukALL7pW2phvTf5cEFp1jBiB3rsE4889KLzybJ7qMMNH9Ux
qdu1elocQK4hzcd1tW9juuA1Aw/TqEYlSubiklUWfwS1ZHziNPmEETf0PrQ8UBsb
b9qGvEIW2DsvUw3DZmMaiuSzZUh7dweIiT5G5aETZ/kn89Ff7j+EtnjAyjHqwhS0
2qmXowh9gtApi9avi2L4r4ZOvvZm9CtFm0izpiaySKzd+ztEGphhaL+N3GpmJ0wm
B/IXtLeQR82Q1NDo79/oqLBfYVei7izk90Bvnfms7Xw3fzdkOjmbjaOvom1V/HSc
LyPXG+XHsdXVvAe/EGR86b+o9msOBH8FO1Z2moJ/pAcF6hQy4ZV9AY6Or9AzVrR7
FtwgGbbD9qGnFGLU+voMU029iXEC0FLqMGPCkTvGJTNBe1nbBBdxogTXZhgZx4QK
46185DW/qpfc25bWitymp1ZTwVYf4kYboMUCAwEAAaN7MHkwCQYDVR0TBAIwADAs
BglghkgBhvhCAQ0EHxYdT3BlblNTTCBHZW5lcmF0ZWQgQ2VydGlmaWNhdGUwHQYD
VR0OBBYEFBLcSeEtLCoiO6qHZmJOJixjC7CaMB8GA1UdIwQYMBaAFFiNvjedjaUQ
oHk3OvYM+OKq0KGvMA0GCSqGSIb3DQEBCwUAA4IBAQCZFsGjbs2DUMsBhLYjHRB+
2hGlNmHoS/2KTrxpm7yo3RPTPmR5xVRnpgBWrCT4rC4bRM4HtQ3YOL7M3E+TysCk
xWrVs6ItBJO5LrMG7DKwPCPzjMkskn/iAbHamcNvIoSu3eX8GDjaAnE+jBcD+WgW
KqtkRufraqkrux0m7bG3PxToCEsYPuqYfq98dZFmh4E4SIxScAEZBbkHlPWt+DTo
g2t8EhQsE3kmUrNf+GQRUpi8n8bZkTRsiudDsbDARMgGwgpZfP5huFuto5PKMBEx
nljOuy+Zd1yk5lvaI+5jo/ZuwsYo84HUehxLd43rLYT3Du/1OOk3NKRhcXm0pMnG
-----END CERTIFICATE-----
